target datalayout = "e-m:e-p270:32:32-p271:32:32-p272:64:64-i64:64-i128:128-f80:128-n8:16:32:64-S128"
target triple = "x86_64-pc-linux-gnu"

%class.ZStatPhaseCollection = type <{ %class.ZStatPhase, i8, [7 x i8] }>
%class.ZStatPhase = type { ptr, %class.ZStatSampler }
%class.ZStatSampler = type { %class.ZStatIterableValue, ptr }
%class.ZStatIterableValue = type { %class.ZStatValue, ptr }
%class.ZStatValue = type { ptr, ptr, i32, i32 }
%class.PlatformMutex = type { %union.pthread_mutex_t }
%union.pthread_mutex_t = type { %struct.__pthread_mutex_s }
%struct.__pthread_mutex_s = type { i32, i32, i32, i32, i32, i16, i16, %struct.__pthread_internal_list }
%struct.__pthread_internal_list = type { ptr, ptr }
%class.ZDriver = type { %class.ZThread.base, i32, [4 x i8] }
%class.ZThread.base = type { %class.ConcurrentGCThread.base }
%class.ConcurrentGCThread.base = type { %class.NamedThread.base, i8, i8 }
%class.NamedThread.base = type <{ %class.NonJavaThread, ptr, ptr, i32 }>
%class.NonJavaThread = type { %class.Thread, ptr }
%class.Thread = type { %class.ThreadShadow.base, i64, [43 x i64], ptr, ptr, i32, ptr, i64, i64, %class.ThreadLocalAllocBuffer, i64, %class.ThreadHeapSampler, %class.ThreadStatisticalInfo, %class.JfrThreadLocal, ptr, ptr, ptr, ptr, ptr, ptr, i64, i32, i32, ptr, i32, i32, i32, i32, i8, ptr }
%class.ThreadShadow.base = type <{ ptr, ptr, ptr, i32 }>
%class.ThreadLocalAllocBuffer = type <{ ptr, ptr, ptr, ptr, ptr, i64, i64, i64, i64, i32, i32, i32, i32, i64, %class.AdaptiveWeightedAverage, [4 x i8] }>
%class.AdaptiveWeightedAverage = type { float, i32, i32, i8, float }
%class.ThreadHeapSampler = type { i64 }
%class.ThreadStatisticalInfo = type { i64, i64 }
%class.JfrThreadLocal = type <{ ptr, ptr, ptr, ptr, ptr, ptr, ptr, ptr, ptr, ptr, %class.RefCountHandle, i64, i64, i64, i64, i64, i64, i64, i64, i64, i64, i64, i32, i32, i32, i16, i8, i8, i8, i8, i8, [5 x i8] }>
%class.RefCountHandle = type { ptr }
%class.ZDriverMinor = type { %class.ZDriver.base, %class.ZDriverPort, %class.ConcurrentGCTimer, %class.ZMinorTracer, i64 }
%class.ZDriver.base = type { %class.ZThread.base, i32 }
%class.ZDriverPort = type { %class.ZConditionLock, i8, %class.ZDriverRequest, i64, %class.ZList }
%class.ZConditionLock = type { %class.PlatformMonitor }
%class.PlatformMonitor = type { %class.PlatformMutex, %union.pthread_cond_t }
%union.pthread_cond_t = type { %struct.__pthread_cond_s }
%struct.__pthread_cond_s = type { %union.__atomic_wide_counter, %union.__atomic_wide_counter, [2 x i32], [2 x i32], i32, i32, [2 x i32] }
%union.__atomic_wide_counter = type { i64 }
%class.ZDriverRequest = type { i32, i32, i32 }
%class.ZList = type { %class.ZListNode, i64 }
%class.ZListNode = type { ptr, ptr }
%class.ConcurrentGCTimer = type { %class.GCTimer }
%class.GCTimer = type { ptr, %class.TimeInstant, %class.TimeInstant, %class.TimePartitions }
%class.TimeInstant = type { %class.CompositeCounterRepresentation }
%class.CompositeCounterRepresentation = type { %class.Representation }
%class.Representation = type { %class.PairRep }
%class.PairRep = type { i64, i64 }
%class.TimePartitions = type { ptr, %class.PhasesStack, %class.TimeInterval, %class.TimeInterval }
%class.PhasesStack = type { [6 x i32], i32 }
%class.TimeInterval = type { %class.CompositeCounterRepresentation }
%class.ZMinorTracer = type { %class.GCTracer }
%class.GCTracer = type { ptr, %class.SharedGCInfo }
%class.SharedGCInfo = type { i32, i32, %class.TimeInstant, %class.TimeInstant, %class.TimeInterval, %class.TimeInterval }
%class.ZDriverScopeMinor = type { [4 x i8], %class.GCIdMark, i32, %class.ZGCCauseSetter, %class.ZStatTimer, %class.ZServiceabilityCycleTracer }
%class.GCIdMark = type { i32 }
%class.ZGCCauseSetter = type { %class.GCCauseSetter.base, ptr }
%class.GCCauseSetter.base = type <{ ptr, i32 }>
%class.ZStatTimer = type { ptr, ptr, %class.TimeInstant }
%class.ZServiceabilityCycleTracer = type { [8 x i8], %class.TraceMemoryManagerStats }
%class.TraceMemoryManagerStats = type { ptr, i32, ptr, i8, i8, i8, i8, i8, i8, i8, i8 }
%class.ZGCIdMinor = type { i8 }
%class.NamedThread = type <{ %class.NonJavaThread, ptr, ptr, i32, [4 x i8] }>
%class.GCCauseSetter = type <{ ptr, i32, [4 x i8] }>
%class.CollectedHeap = type { ptr, ptr, i64, i64, %class.SoftRefPolicy, %class.MemRegion, i8, i64, i32, i32, i32, i32, ptr, ptr }
%class.SoftRefPolicy = type { i8, i8 }
%class.MemRegion = type { ptr, i64 }

@_ZL21ZPhaseCollectionMinor = internal global %class.ZStatPhaseCollection zeroinitializer, align 8
@_ZN7ZDriver6_minorE = hidden global ptr null, align 8
@_ZN11ZGeneration6_youngE = external global ptr, align 8

; Function Attrs: mustprogress nounwind uwtable
define linkonce_odr hidden void @_ZN7PairRepIllEC2Ev(ptr noundef nonnull align 8 dereferenceable(16) %0) unnamed_addr #1 comdat align 2 {
  %2 = alloca ptr, align 8
  store ptr %0, ptr %2, align 8
  %3 = load ptr, ptr %2, align 8
  %4 = getelementptr inbounds %class.PairRep, ptr %3, i32 0, i32 0
  store i64 0, ptr %4, align 8
  %5 = getelementptr inbounds %class.PairRep, ptr %3, i32 0, i32 1
  store i64 0, ptr %5, align 8
  ret void
}

; Function Attrs: mustprogress nounwind uwtable
define linkonce_odr hidden void @_ZN14RepresentationI29CompositeElapsedCounterSourceEC2Ev(ptr noundef nonnull align 8 dereferenceable(16) %0) unnamed_addr #1 comdat align 2 {
  %2 = alloca ptr, align 8
  store ptr %0, ptr %2, align 8
  %3 = load ptr, ptr %2, align 8
  %4 = getelementptr inbounds %class.Representation, ptr %3, i32 0, i32 0
  call void @_ZN7PairRepIllEC2Ev(ptr noundef nonnull align 8 dereferenceable(16) %4)
  ret void
}

; Function Attrs: mustprogress nounwind uwtable
define linkonce_odr hidden void @_ZN30CompositeCounterRepresentationI29CompositeElapsedCounterSourceEC2Ev(ptr noundef nonnull align 8 dereferenceable(16) %0) unnamed_addr #1 comdat align 2 {
  %2 = alloca ptr, align 8
  store ptr %0, ptr %2, align 8
  %3 = load ptr, ptr %2, align 8
  call void @_ZN14RepresentationI29CompositeElapsedCounterSourceEC2Ev(ptr noundef nonnull align 8 dereferenceable(16) %3)
  ret void
}

; Function Attrs: mustprogress nounwind uwtable
define linkonce_odr hidden void @_ZN11TimeInstantI30CompositeCounterRepresentation29CompositeElapsedCounterSourceE5stampEv(ptr noundef nonnull align 8 dereferenceable(16) %0) #1 comdat align 2 {
  %2 = alloca ptr, align 8
  %3 = alloca %class.PairRep, align 8
  store ptr %0, ptr %2, align 8
  %4 = load ptr, ptr %2, align 8
  %5 = call { i64, i64 } @_ZN29CompositeElapsedCounterSource3nowEv()
  %6 = getelementptr inbounds { i64, i64 }, ptr %3, i32 0, i32 0
  %7 = extractvalue { i64, i64 } %5, 0
  store i64 %7, ptr %6, align 8
  %8 = getelementptr inbounds { i64, i64 }, ptr %3, i32 0, i32 1
  %9 = extractvalue { i64, i64 } %5, 1
  store i64 %9, ptr %8, align 8
  %10 = getelementptr inbounds %class.Representation, ptr %4, i32 0, i32 0
  call void @llvm.memcpy.p0.p0.i64(ptr align 8 %10, ptr align 8 %3, i64 16, i1 false)
  ret void
}

; Function Attrs: mustprogress nounwind uwtable
define linkonce_odr hidden void @_ZN11TimeInstantI30CompositeCounterRepresentation29CompositeElapsedCounterSourceEC2Ev(ptr noundef nonnull align 8 dereferenceable(16) %0) unnamed_addr #1 comdat align 2 {
  %2 = alloca ptr, align 8
  store ptr %0, ptr %2, align 8
  %3 = load ptr, ptr %2, align 8
  call void @_ZN30CompositeCounterRepresentationI29CompositeElapsedCounterSourceEC2Ev(ptr noundef nonnull align 8 dereferenceable(16) %3)
  ret void
}

; Function Attrs: mustprogress nounwind uwtable
define linkonce_odr hidden noundef i32 @_ZN13CollectedHeap8gc_causeEv(ptr noundef nonnull align 8 dereferenceable(104) %0) #1 comdat align 2 {
  %2 = alloca ptr, align 8
  store ptr %0, ptr %2, align 8
  %3 = load ptr, ptr %2, align 8
  %4 = getelementptr inbounds %class.CollectedHeap, ptr %3, i32 0, i32 10
  %5 = load i32, ptr %4, align 8
  ret i32 %5
}

; Function Attrs: mustprogress nounwind uwtable
define linkonce_odr hidden void @_ZN13GCCauseSetterD2Ev(ptr noundef nonnull align 8 dereferenceable(12) %0) unnamed_addr #1 comdat align 2 {
  %2 = alloca ptr, align 8
  store ptr %0, ptr %2, align 8
  %3 = load ptr, ptr %2, align 8
  %4 = getelementptr inbounds %class.GCCauseSetter, ptr %3, i32 0, i32 0
  %5 = load ptr, ptr %4, align 8
  %6 = getelementptr inbounds %class.GCCauseSetter, ptr %3, i32 0, i32 1
  %7 = load i32, ptr %6, align 8
  call void @_ZN13CollectedHeap12set_gc_causeEN7GCCause5CauseE(ptr noundef nonnull align 8 dereferenceable(104) %5, i32 noundef %7)
  ret void
}

; Function Attrs: mustprogress nounwind uwtable
define linkonce_odr hidden { i64, i64 } @_ZN11TimeInstantI30CompositeCounterRepresentation29CompositeElapsedCounterSourceE3nowEv() #1 comdat align 2 {
  %1 = alloca %class.TimeInstant, align 8
  call void @_ZN11TimeInstantI30CompositeCounterRepresentation29CompositeElapsedCounterSourceEC2Ev(ptr noundef nonnull align 8 dereferenceable(16) %1)
  call void @_ZN11TimeInstantI30CompositeCounterRepresentation29CompositeElapsedCounterSourceE5stampEv(ptr noundef nonnull align 8 dereferenceable(16) %1)
  %2 = getelementptr inbounds %class.TimeInstant, ptr %1, i32 0, i32 0
  %3 = getelementptr inbounds %class.CompositeCounterRepresentation, ptr %2, i32 0, i32 0
  %4 = getelementptr inbounds %class.Representation, ptr %3, i32 0, i32 0
  %5 = load { i64, i64 }, ptr %4, align 8
  ret { i64, i64 } %5
}

; Function Attrs: mustprogress nounwind uwtable
define hidden void @_ZN7ZDriver12set_gc_causeEN7GCCause5CauseE(ptr noundef nonnull align 8 dereferenceable(924) %0, i32 noundef %1) #1 align 2 {
  %3 = alloca ptr, align 8
  %4 = alloca i32, align 4
  store ptr %0, ptr %3, align 8
  store i32 %1, ptr %4, align 4
  %5 = load ptr, ptr %3, align 8
  %6 = load i32, ptr %4, align 4
  %7 = getelementptr inbounds %class.ZDriver, ptr %5, i32 0, i32 1
  store i32 %6, ptr %7, align 8
  ret void
}

; Function Attrs: mustprogress nounwind uwtable
define linkonce_odr hidden void @_ZN13GCCauseSetterC2EP13CollectedHeapN7GCCause5CauseE(ptr noundef nonnull align 8 dereferenceable(12) %0, ptr noundef %1, i32 noundef %2) unnamed_addr #1 comdat align 2 {
  %4 = alloca ptr, align 8
  %5 = alloca ptr, align 8
  %6 = alloca i32, align 4
  store ptr %0, ptr %4, align 8
  store ptr %1, ptr %5, align 8
  store i32 %2, ptr %6, align 4
  %7 = load ptr, ptr %4, align 8
  %8 = load ptr, ptr %5, align 8
  %9 = getelementptr inbounds %class.GCCauseSetter, ptr %7, i32 0, i32 0
  store ptr %8, ptr %9, align 8
  %10 = getelementptr inbounds %class.GCCauseSetter, ptr %7, i32 0, i32 0
  %11 = load ptr, ptr %10, align 8
  %12 = call noundef i32 @_ZN13CollectedHeap8gc_causeEv(ptr noundef nonnull align 8 dereferenceable(104) %11)
  %13 = getelementptr inbounds %class.GCCauseSetter, ptr %7, i32 0, i32 1
  store i32 %12, ptr %13, align 8
  %14 = getelementptr inbounds %class.GCCauseSetter, ptr %7, i32 0, i32 0
  %15 = load ptr, ptr %14, align 8
  %16 = load i32, ptr %6, align 4
  call void @_ZN13CollectedHeap12set_gc_causeEN7GCCause5CauseE(ptr noundef nonnull align 8 dereferenceable(104) %15, i32 noundef %16)
  ret void
}

; Function Attrs: mustprogress nounwind uwtable
define linkonce_odr hidden void @_ZN14ZGCCauseSetterI12ZDriverMinorED2Ev(ptr noundef nonnull align 8 dereferenceable(24) %0) unnamed_addr #1 comdat align 2 {
  %2 = alloca ptr, align 8
  store ptr %0, ptr %2, align 8
  %3 = load ptr, ptr %2, align 8
  %4 = getelementptr inbounds %class.ZGCCauseSetter, ptr %3, i32 0, i32 1
  %5 = load ptr, ptr %4, align 8
  call void @_ZN7ZDriver12set_gc_causeEN7GCCause5CauseE(ptr noundef nonnull align 8 dereferenceable(924) %5, i32 noundef 11)
  call void @_ZN13GCCauseSetterD2Ev(ptr noundef nonnull align 8 dereferenceable(12) %3) #8
  ret void
}

; Function Attrs: mustprogress nounwind uwtable
define linkonce_odr hidden void @_ZN10ZStatTimerD2Ev(ptr noundef nonnull align 8 dereferenceable(32) %0) unnamed_addr #1 comdat align 2 {
  %2 = alloca ptr, align 8
  %3 = alloca %class.TimeInstant, align 8
  store ptr %0, ptr %2, align 8
  %4 = load ptr, ptr %2, align 8
  %5 = call { i64, i64 } @_ZN11TimeInstantI30CompositeCounterRepresentation29CompositeElapsedCounterSourceE3nowEv()
  %6 = getelementptr inbounds %class.TimeInstant, ptr %3, i32 0, i32 0
  %7 = getelementptr inbounds %class.CompositeCounterRepresentation, ptr %6, i32 0, i32 0
  %8 = getelementptr inbounds %class.Representation, ptr %7, i32 0, i32 0
  %9 = getelementptr inbounds { i64, i64 }, ptr %8, i32 0, i32 0
  %10 = extractvalue { i64, i64 } %5, 0
  store i64 %10, ptr %9, align 8
  %11 = getelementptr inbounds { i64, i64 }, ptr %8, i32 0, i32 1
  %12 = extractvalue { i64, i64 } %5, 1
  store i64 %12, ptr %11, align 8
  %13 = getelementptr inbounds %class.ZStatTimer, ptr %4, i32 0, i32 1
  %14 = load ptr, ptr %13, align 8
  %15 = getelementptr inbounds %class.ZStatTimer, ptr %4, i32 0, i32 0
  %16 = load ptr, ptr %15, align 8
  %17 = getelementptr inbounds %class.ZStatTimer, ptr %4, i32 0, i32 2
  %18 = load ptr, ptr %14, align 8
  %19 = getelementptr inbounds ptr, ptr %18, i64 1
  %20 = load ptr, ptr %19, align 8
  call void %20(ptr noundef nonnull align 8 dereferenceable(48) %14, ptr noundef %16, ptr noundef nonnull align 8 dereferenceable(16) %17, ptr noundef nonnull align 8 dereferenceable(16) %3)
  ret void
}

; Function Attrs: mustprogress nounwind uwtable
define linkonce_odr hidden void @_ZN10ZStatTimerC2ERK10ZStatPhaseP17ConcurrentGCTimer(ptr noundef nonnull align 8 dereferenceable(32) %0, ptr noundef nonnull align 8 dereferenceable(48) %1, ptr noundef %2) unnamed_addr #1 comdat align 2 {
  %4 = alloca ptr, align 8
  %5 = alloca ptr, align 8
  %6 = alloca ptr, align 8
  store ptr %0, ptr %4, align 8
  store ptr %1, ptr %5, align 8
  store ptr %2, ptr %6, align 8
  %7 = load ptr, ptr %4, align 8
  %8 = getelementptr inbounds %class.ZStatTimer, ptr %7, i32 0, i32 0
  %9 = load ptr, ptr %6, align 8
  store ptr %9, ptr %8, align 8
  %10 = getelementptr inbounds %class.ZStatTimer, ptr %7, i32 0, i32 1
  %11 = load ptr, ptr %5, align 8
  store ptr %11, ptr %10, align 8
  %12 = getelementptr inbounds %class.ZStatTimer, ptr %7, i32 0, i32 2
  %13 = call { i64, i64 } @_ZN11TimeInstantI30CompositeCounterRepresentation29CompositeElapsedCounterSourceE3nowEv()
  %14 = getelementptr inbounds %class.TimeInstant, ptr %12, i32 0, i32 0
  %15 = getelementptr inbounds %class.CompositeCounterRepresentation, ptr %14, i32 0, i32 0
  %16 = getelementptr inbounds %class.Representation, ptr %15, i32 0, i32 0
  %17 = getelementptr inbounds { i64, i64 }, ptr %16, i32 0, i32 0
  %18 = extractvalue { i64, i64 } %13, 0
  store i64 %18, ptr %17, align 8
  %19 = getelementptr inbounds { i64, i64 }, ptr %16, i32 0, i32 1
  %20 = extractvalue { i64, i64 } %13, 1
  store i64 %20, ptr %19, align 8
  %21 = getelementptr inbounds %class.ZStatTimer, ptr %7, i32 0, i32 1
  %22 = load ptr, ptr %21, align 8
  %23 = getelementptr inbounds %class.ZStatTimer, ptr %7, i32 0, i32 0
  %24 = load ptr, ptr %23, align 8
  %25 = getelementptr inbounds %class.ZStatTimer, ptr %7, i32 0, i32 2
  %26 = load ptr, ptr %22, align 8
  %27 = getelementptr inbounds ptr, ptr %26, i64 0
  %28 = load ptr, ptr %27, align 8
  call void %28(ptr noundef nonnull align 8 dereferenceable(48) %22, ptr noundef %24, ptr noundef nonnull align 8 dereferenceable(16) %25)
  ret void
}

; Function Attrs: mustprogress nounwind uwtable
define linkonce_odr hidden void @_ZN14ZGCCauseSetterI12ZDriverMinorEC2EPS0_N7GCCause5CauseE(ptr noundef nonnull align 8 dereferenceable(24) %0, ptr noundef %1, i32 noundef %2) unnamed_addr #1 comdat align 2 {
  %4 = alloca ptr, align 8
  %5 = alloca ptr, align 8
  %6 = alloca i32, align 4
  store ptr %0, ptr %4, align 8
  store ptr %1, ptr %5, align 8
  store i32 %2, ptr %6, align 4
  %7 = load ptr, ptr %4, align 8
  %8 = call noundef ptr @_ZN14ZCollectedHeap4heapEv()
  %9 = load i32, ptr %6, align 4
  call void @_ZN13GCCauseSetterC2EP13CollectedHeapN7GCCause5CauseE(ptr noundef nonnull align 8 dereferenceable(12) %7, ptr noundef %8, i32 noundef %9)
  %10 = getelementptr inbounds %class.ZGCCauseSetter, ptr %7, i32 0, i32 1
  %11 = load ptr, ptr %5, align 8
  store ptr %11, ptr %10, align 8
  %12 = getelementptr inbounds %class.ZGCCauseSetter, ptr %7, i32 0, i32 1
  %13 = load ptr, ptr %12, align 8
  %14 = load i32, ptr %6, align 4
  call void @_ZN7ZDriver12set_gc_causeEN7GCCause5CauseE(ptr noundef nonnull align 8 dereferenceable(924) %13, i32 noundef %14)
  ret void
}

; Function Attrs: mustprogress nounwind uwtable
define hidden noundef ptr @_ZN7ZDriver5minorEv() #1 align 2 {
  %1 = load ptr, ptr @_ZN7ZDriver6_minorE, align 8
  ret ptr %1
}

; Function Attrs: mustprogress nounwind uwtable
define linkonce_odr hidden void @_ZN17ZDriverScopeMinorD2Ev(ptr noundef nonnull align 8 dereferenceable(112) %0) unnamed_addr #1 comdat align 2 {
  %2 = alloca ptr, align 8
  store ptr %0, ptr %2, align 8
  %3 = load ptr, ptr %2, align 8
  %4 = getelementptr inbounds %class.ZDriverScopeMinor, ptr %3, i32 0, i32 5
  call void @_ZN26ZServiceabilityCycleTracerD1Ev(ptr noundef nonnull align 8 dereferenceable(40) %4) #8
  %5 = getelementptr inbounds %class.ZDriverScopeMinor, ptr %3, i32 0, i32 4
  call void @_ZN10ZStatTimerD2Ev(ptr noundef nonnull align 8 dereferenceable(32) %5) #8
  %6 = getelementptr inbounds %class.ZDriverScopeMinor, ptr %3, i32 0, i32 3
  call void @_ZN14ZGCCauseSetterI12ZDriverMinorED2Ev(ptr noundef nonnull align 8 dereferenceable(24) %6) #8
  %7 = getelementptr inbounds %class.ZDriverScopeMinor, ptr %3, i32 0, i32 1
  call void @_ZN8GCIdMarkD1Ev(ptr noundef nonnull align 4 dereferenceable(4) %7) #8
  ret void
}

; Function Attrs: mustprogress nounwind uwtable
define linkonce_odr hidden noundef ptr @_ZN11ZGeneration5youngEv() #1 comdat align 2 {
  %1 = load ptr, ptr @_ZN11ZGeneration6_youngE, align 8
  ret ptr %1
}

; Function Attrs: mustprogress nounwind uwtable
define linkonce_odr hidden noundef i32 @_ZN11NamedThread5gc_idEv(ptr noundef nonnull align 8 dereferenceable(916) %0) #1 comdat align 2 {
  %2 = alloca ptr, align 8
  store ptr %0, ptr %2, align 8
  %3 = load ptr, ptr %2, align 8
  %4 = getelementptr inbounds %class.NamedThread, ptr %3, i32 0, i32 3
  %5 = load i32, ptr %4, align 8
  ret i32 %5
}

; Function Attrs: mustprogress nounwind uwtable
define linkonce_odr hidden void @_ZN17ZDriverScopeMinorC2ERK14ZDriverRequestP17ConcurrentGCTimer(ptr noundef nonnull align 8 dereferenceable(112) %0, ptr noundef nonnull align 4 dereferenceable(12) %1, ptr noundef %2) unnamed_addr #1 comdat align 2 {
  %4 = alloca ptr, align 8
  %5 = alloca ptr, align 8
  %6 = alloca ptr, align 8
  store ptr %0, ptr %4, align 8
  store ptr %1, ptr %5, align 8
  store ptr %2, ptr %6, align 8
  %7 = load ptr, ptr %4, align 8
  %8 = getelementptr inbounds %class.ZDriverScopeMinor, ptr %7, i32 0, i32 1
  call void @_ZN8GCIdMarkC1Ev(ptr noundef nonnull align 4 dereferenceable(4) %8)
  %9 = getelementptr inbounds %class.ZDriverScopeMinor, ptr %7, i32 0, i32 2
  %10 = load ptr, ptr %5, align 8
  %11 = call noundef i32 @_ZNK14ZDriverRequest5causeEv(ptr noundef nonnull align 4 dereferenceable(12) %10)
  store i32 %11, ptr %9, align 8
  %12 = getelementptr inbounds %class.ZDriverScopeMinor, ptr %7, i32 0, i32 3
  %13 = call noundef ptr @_ZN7ZDriver5minorEv()
  %14 = getelementptr inbounds %class.ZDriverScopeMinor, ptr %7, i32 0, i32 2
  %15 = load i32, ptr %14, align 8
  call void @_ZN14ZGCCauseSetterI12ZDriverMinorEC2EPS0_N7GCCause5CauseE(ptr noundef nonnull align 8 dereferenceable(24) %12, ptr noundef %13, i32 noundef %15)
  %16 = getelementptr inbounds %class.ZDriverScopeMinor, ptr %7, i32 0, i32 4
  %17 = load ptr, ptr %6, align 8
  call void @_ZN10ZStatTimerC2ERK10ZStatPhaseP17ConcurrentGCTimer(ptr noundef nonnull align 8 dereferenceable(32) %16, ptr noundef nonnull align 8 dereferenceable(48) @_ZL21ZPhaseCollectionMinor, ptr noundef %17)
  %18 = getelementptr inbounds %class.ZDriverScopeMinor, ptr %7, i32 0, i32 5
  call void @_ZN26ZServiceabilityCycleTracerC1Eb(ptr noundef nonnull align 8 dereferenceable(40) %18, i1 noundef zeroext true)
  %19 = call noundef ptr @_ZN11ZGeneration5youngEv()
  %20 = load ptr, ptr %5, align 8
  %21 = call noundef i32 @_ZNK14ZDriverRequest14young_nworkersEv(ptr noundef nonnull align 4 dereferenceable(12) %20)
  call void @_ZN11ZGeneration18set_active_workersEj(ptr noundef nonnull align 64 dereferenceable(6592) %19, i32 noundef %21)
  ret void
}

; Function Attrs: mustprogress nounwind uwtable
define hidden void @_ZN12ZDriverMinor2gcERK14ZDriverRequest(ptr noundef nonnull align 8 dereferenceable(1264) %0, ptr noundef nonnull align 4 dereferenceable(12) %1) #1 align 2 {
  %3 = alloca ptr, align 8
  %4 = alloca ptr, align 8
  %5 = alloca %class.ZDriverScopeMinor, align 8
  %6 = alloca %class.ZGCIdMinor, align 1
  store ptr %0, ptr %3, align 8
  store ptr %1, ptr %4, align 8
  %7 = load ptr, ptr %3, align 8
  %8 = load ptr, ptr %4, align 8
  %9 = getelementptr inbounds %class.ZDriverMinor, ptr %7, i32 0, i32 2
  call void @_ZN17ZDriverScopeMinorC2ERK14ZDriverRequestP17ConcurrentGCTimer(ptr noundef nonnull align 8 dereferenceable(112) %5, ptr noundef nonnull align 4 dereferenceable(12) %8, ptr noundef %9)
  %10 = call noundef i32 @_ZN11NamedThread5gc_idEv(ptr noundef nonnull align 8 dereferenceable(916) %7)
  call void @_ZN10ZGCIdMinorC1Ej(ptr noundef nonnull align 1 dereferenceable(1) %6, i32 noundef %10)
  %11 = call noundef ptr @_ZN11ZGeneration5youngEv()
  %12 = getelementptr inbounds %class.ZDriverMinor, ptr %7, i32 0, i32 2
  call void @_ZN16ZGenerationYoung7collectE10ZYoungTypeP17ConcurrentGCTimer(ptr noundef nonnull align 64 dereferenceable(6720) %11, i32 noundef 0, ptr noundef %12)
  call void @_ZN10ZGCIdMinorD1Ev(ptr noundef nonnull align 1 dereferenceable(1) %6) #8
  call void @_ZN17ZDriverScopeMinorD2Ev(ptr noundef nonnull align 8 dereferenceable(112) %5) #8
  ret void
}