; Function Attrs: mustprogress nounwind uwtable
define hidden void @_ZN12ZDriverMinor2gcERK14ZDriverRequest(ptr noundef nonnull align 8 dereferenceable(1264) %0, ptr noundef nonnull align 4 dereferenceable(12) %1) local_unnamed_addr #1 align 2 {
  %3 = alloca %class.TimeInstant, align 8
  %4 = alloca %class.ZDriverScopeMinor, align 8
  %5 = alloca %class.ZGCIdMinor, align 1
  %6 = getelementptr inbounds i8, ptr %0, i64 1064
  %7 = getelementptr inbounds i8, ptr %4, i64 4
  call void @_ZN8GCIdMarkC1Ev(ptr noundef nonnull align 4 dereferenceable(4) %7) #13
  %8 = getelementptr inbounds i8, ptr %4, i64 8
  %9 = call noundef i32 @_ZNK14ZDriverRequest5causeEv(ptr noundef nonnull align 4 dereferenceable(12) %1) #13
  store i32 %9, ptr %8, align 8
  %10 = getelementptr inbounds i8, ptr %4, i64 16
  %11 = load ptr, ptr @_ZN7ZDriver6_minorE, align 8
  %12 = call noundef ptr @_ZN14ZCollectedHeap4heapEv() #13
  store ptr %12, ptr %10, align 8
  %13 = getelementptr inbounds i8, ptr %12, i64 80
  %14 = load i32, ptr %13, align 8
  %15 = getelementptr inbounds i8, ptr %4, i64 24
  store i32 %14, ptr %15, align 8
  call void @_ZN13CollectedHeap12set_gc_causeEN7GCCause5CauseE(ptr noundef nonnull align 8 dereferenceable(104) %12, i32 noundef %9) #13
  %16 = getelementptr inbounds i8, ptr %4, i64 32
  store ptr %11, ptr %16, align 8
  %17 = getelementptr inbounds i8, ptr %11, i64 920
  store i32 %9, ptr %17, align 8
  %18 = getelementptr inbounds i8, ptr %4, i64 40
  store ptr %6, ptr %18, align 8
  %19 = getelementptr inbounds i8, ptr %4, i64 48
  store ptr @_ZL21ZPhaseCollectionMinor, ptr %19, align 8
  %20 = getelementptr inbounds i8, ptr %4, i64 56
  %21 = call { i64, i64 } @_ZN29CompositeElapsedCounterSource3nowEv() #13
  %22 = extractvalue { i64, i64 } %21, 0
  store i64 %22, ptr %20, align 8
  %23 = getelementptr inbounds i8, ptr %4, i64 64
  %24 = extractvalue { i64, i64 } %21, 1
  store i64 %24, ptr %23, align 8
  %25 = load ptr, ptr %19, align 8
  %26 = load ptr, ptr %18, align 8
  %27 = load ptr, ptr %25, align 8
  %28 = load ptr, ptr %27, align 8
  call void %28(ptr noundef nonnull align 8 dereferenceable(48) %25, ptr noundef %26, ptr noundef nonnull align 8 dereferenceable(16) %20) #13
  %29 = getelementptr inbounds i8, ptr %4, i64 72
  call void @_ZN26ZServiceabilityCycleTracerC1Eb(ptr noundef nonnull align 8 dereferenceable(40) %29, i1 noundef zeroext true) #13
  %30 = load ptr, ptr @_ZN11ZGeneration6_youngE, align 8
  %31 = call noundef i32 @_ZNK14ZDriverRequest14young_nworkersEv(ptr noundef nonnull align 4 dereferenceable(12) %1) #13
  call void @_ZN11ZGeneration18set_active_workersEj(ptr noundef nonnull align 64 dereferenceable(6592) %30, i32 noundef %31) #13
  %32 = getelementptr inbounds i8, ptr %0, i64 912
  %33 = load i32, ptr %32, align 8
  call void @_ZN10ZGCIdMinorC1Ej(ptr noundef nonnull align 1 dereferenceable(1) %5, i32 noundef %33) #13
  %34 = load ptr, ptr @_ZN11ZGeneration6_youngE, align 8
  call void @_ZN16ZGenerationYoung7collectE10ZYoungTypeP17ConcurrentGCTimer(ptr noundef nonnull align 64 dereferenceable(6720) %34, i32 noundef 0, ptr noundef nonnull %6) #13
  call void @_ZN10ZGCIdMinorD1Ev(ptr noundef nonnull align 1 dereferenceable(1) %5) #13
  call void @_ZN26ZServiceabilityCycleTracerD1Ev(ptr noundef nonnull align 8 dereferenceable(40) %29) #13
  call void @llvm.lifetime.start.p0(i64 16, ptr nonnull %3)
  %35 = call { i64, i64 } @_ZN29CompositeElapsedCounterSource3nowEv() #13
  %36 = extractvalue { i64, i64 } %35, 0
  store i64 %36, ptr %3, align 8
  %37 = getelementptr inbounds i8, ptr %3, i64 8
  %38 = extractvalue { i64, i64 } %35, 1
  store i64 %38, ptr %37, align 8
  %39 = load ptr, ptr %19, align 8
  %40 = load ptr, ptr %18, align 8
  %41 = load ptr, ptr %39, align 8
  %42 = getelementptr inbounds i8, ptr %41, i64 8
  %43 = load ptr, ptr %42, align 8
  call void %43(ptr noundef nonnull align 8 dereferenceable(48) %39, ptr noundef %40, ptr noundef nonnull align 8 dereferenceable(16) %20, ptr noundef nonnull align 8 dereferenceable(16) %3) #13
  call void @llvm.lifetime.end.p0(i64 16, ptr nonnull %3)
  %44 = load ptr, ptr %16, align 8
  %45 = getelementptr inbounds i8, ptr %44, i64 920
  store i32 11, ptr %45, align 8
  %46 = load ptr, ptr %10, align 8
  %47 = load i32, ptr %15, align 8
  call void @_ZN13CollectedHeap12set_gc_causeEN7GCCause5CauseE(ptr noundef nonnull align 8 dereferenceable(104) %46, i32 noundef %47) #13
  call void @_ZN8GCIdMarkD1Ev(ptr noundef nonnull align 4 dereferenceable(4) %7) #13
  ret void
}